target datalayout = "e-m:e-p270:32:32-p271:32:32-p272:64:64-i64:64-i128:128-f80:128-n8:16:32:64-S128"
target triple = "x86_64-pc-linux-gnu"

@.str.2598 = private unnamed_addr constant [19 x i8] c"ObjectIdentifier: \00", align 1
@.str.2682 = private unnamed_addr constant [11 x i8] c"Priority: \00", align 1
@propertyArrayIndex = internal global i32 -1, align 4

; Function Attrs: nounwind null_pointer_is_valid sspstrong uwtable
define internal zeroext i1 @tag_is_closing(i8 noundef zeroext %0) #3 {
  %2 = alloca i8, align 1
  store i8 %0, ptr %2, align 1
  %3 = load i8, ptr %2, align 1
  %4 = zext i8 %3 to i32
  %5 = and i32 %4, 7
  %6 = icmp eq i32 %5, 7
  ret i1 %6
}

; Function Attrs: null_pointer_is_valid sspstrong uwtable
define internal i32 @fTagHeader(ptr noundef %0, ptr noundef %1, i32 noundef %2, ptr noundef %3, ptr noundef %4, ptr noundef %5) #0 {
  %7 = alloca ptr, align 8
  %8 = alloca ptr, align 8
  %9 = alloca i32, align 4
  %10 = alloca ptr, align 8
  %11 = alloca ptr, align 8
  %12 = alloca ptr, align 8
  store ptr %0, ptr %7, align 8
  store ptr %1, ptr %8, align 8
  store i32 %2, ptr %9, align 4
  store ptr %3, ptr %10, align 8
  store ptr %4, ptr %11, align 8
  store ptr %5, ptr %12, align 8
  %13 = load ptr, ptr %7, align 8
  %14 = load ptr, ptr %8, align 8
  %15 = load i32, ptr %9, align 4
  %16 = load ptr, ptr %10, align 8
  %17 = load ptr, ptr %11, align 8
  %18 = load ptr, ptr %12, align 8
  %19 = call i32 @fTagHeaderTree(ptr noundef %13, ptr noundef %14, ptr noundef null, i32 noundef %15, ptr noundef %16, ptr noundef %17, ptr noundef %18)
  ret i32 %19
}

; Function Attrs: null_pointer_is_valid sspstrong uwtable
define internal i32 @fWritePropertyRequest(ptr noundef %0, ptr noundef %1, ptr noundef %2, i32 noundef %3) #0 {
  %5 = alloca i32, align 4
  %6 = alloca ptr, align 8
  %7 = alloca ptr, align 8
  %8 = alloca ptr, align 8
  %9 = alloca i32, align 4
  %10 = alloca i32, align 4
  %11 = alloca i8, align 1
  %12 = alloca i8, align 1
  %13 = alloca i32, align 4
  %14 = alloca ptr, align 8
  %15 = alloca i32, align 4
  store ptr %0, ptr %6, align 8
  store ptr %1, ptr %7, align 8
  store ptr %2, ptr %8, align 8
  store i32 %3, ptr %9, align 4
  call void @llvm.lifetime.start.p0(i64 4, ptr %10) #7
  store i32 0, ptr %10, align 4
  call void @llvm.lifetime.start.p0(i64 1, ptr %11) #7
  call void @llvm.lifetime.start.p0(i64 1, ptr %12) #7
  call void @llvm.lifetime.start.p0(i64 4, ptr %13) #7
  call void @llvm.lifetime.start.p0(i64 8, ptr %14) #7
  %16 = load ptr, ptr %8, align 8
  store ptr %16, ptr %14, align 8
  store i32 -1, ptr @propertyArrayIndex, align 4
  br label %17

17:                                               ; preds = %72, %4
  %18 = load ptr, ptr %6, align 8
  %19 = load i32, ptr %9, align 4
  %20 = call i32 @tvb_reported_length_remaining(ptr noundef %18, i32 noundef %19)
  %21 = icmp sgt i32 %20, 0
  br i1 %21, label %22, label %73

22:                                               ; preds = %17
  %23 = load i32, ptr %9, align 4
  store i32 %23, ptr %10, align 4
  %24 = load ptr, ptr %6, align 8
  %25 = load ptr, ptr %7, align 8
  %26 = load i32, ptr %9, align 4
  %27 = call i32 @fTagHeader(ptr noundef %24, ptr noundef %25, i32 noundef %26, ptr noundef %11, ptr noundef %12, ptr noundef %13)
  %28 = load i8, ptr %12, align 1
  %29 = call zeroext i1 @tag_is_closing(i8 noundef zeroext %28)
  br i1 %29, label %30, label %31

30:                                               ; preds = %22
  br label %73

31:                                               ; preds = %22
  %32 = load i8, ptr %11, align 1
  %33 = zext i8 %32 to i32
  switch i32 %33, label %65 [
    i32 0, label %34
    i32 1, label %40
    i32 2, label %46
    i32 3, label %52
    i32 4, label %59
  ]

34:                                               ; preds = %31
  %35 = load ptr, ptr %6, align 8
  %36 = load ptr, ptr %7, align 8
  %37 = load ptr, ptr %14, align 8
  %38 = load i32, ptr %9, align 4
  %39 = call i32 @fObjectIdentifier(ptr noundef %35, ptr noundef %36, ptr noundef %37, i32 noundef %38, ptr noundef @.str.2598)
  store i32 %39, ptr %9, align 4
  br label %67

40:                                               ; preds = %31
  %41 = load ptr, ptr %6, align 8
  %42 = load ptr, ptr %7, align 8
  %43 = load ptr, ptr %14, align 8
  %44 = load i32, ptr %9, align 4
  %45 = call i32 @fPropertyIdentifier(ptr noundef %41, ptr noundef %42, ptr noundef %43, i32 noundef %44)
  store i32 %45, ptr %9, align 4
  br label %67

46:                                               ; preds = %31
  %47 = load ptr, ptr %6, align 8
  %48 = load ptr, ptr %7, align 8
  %49 = load ptr, ptr %14, align 8
  %50 = load i32, ptr %9, align 4
  %51 = call i32 @fPropertyArrayIndex(ptr noundef %47, ptr noundef %48, ptr noundef %49, i32 noundef %50)
  store i32 %51, ptr %9, align 4
  br label %67

52:                                               ; preds = %31
  %53 = load ptr, ptr %6, align 8
  %54 = load ptr, ptr %7, align 8
  %55 = load ptr, ptr %14, align 8
  %56 = load i32, ptr %9, align 4
  %57 = load i8, ptr %12, align 1
  %58 = call i32 @fPropertyValue(ptr noundef %53, ptr noundef %54, ptr noundef %55, i32 noundef %56, i8 noundef zeroext %57)
  store i32 %58, ptr %9, align 4
  br label %67

59:                                               ; preds = %31
  %60 = load ptr, ptr %6, align 8
  %61 = load ptr, ptr %7, align 8
  %62 = load ptr, ptr %14, align 8
  %63 = load i32, ptr %9, align 4
  %64 = call i32 @fUnsignedTag(ptr noundef %60, ptr noundef %61, ptr noundef %62, i32 noundef %63, ptr noundef @.str.2682)
  store i32 %64, ptr %9, align 4
  br label %67

65:                                               ; preds = %31
  %66 = load i32, ptr %9, align 4
  store i32 %66, ptr %5, align 4
  store i32 1, ptr %15, align 4
  br label %75

67:                                               ; preds = %59, %52, %46, %40, %34
  %68 = load i32, ptr %9, align 4
  %69 = load i32, ptr %10, align 4
  %70 = icmp ule i32 %68, %69
  br i1 %70, label %71, label %72

71:                                               ; preds = %67
  br label %73

72:                                               ; preds = %67
  br label %17, !llvm.loop !167

73:                                               ; preds = %71, %30, %17
  %74 = load i32, ptr %9, align 4
  store i32 %74, ptr %5, align 4
  store i32 1, ptr %15, align 4
  br label %75

75:                                               ; preds = %73, %65
  call void @llvm.lifetime.end.p0(i64 8, ptr %14) #7
  call void @llvm.lifetime.end.p0(i64 4, ptr %13) #7
  call void @llvm.lifetime.end.p0(i64 1, ptr %12) #7
  call void @llvm.lifetime.end.p0(i64 1, ptr %11) #7
  call void @llvm.lifetime.end.p0(i64 4, ptr %10) #7
  %76 = load i32, ptr %5, align 4
  ret i32 %76
}