; Function Attrs: null_pointer_is_valid sspstrong uwtable
define internal fastcc i32 @fWritePropertyRequest(ptr noundef nonnull %0, ptr noundef %1, ptr noundef %2, i32 noundef range(i32 0, 7) %3) unnamed_addr #0 {
  %5 = alloca i8, align 1
  %6 = alloca i8, align 1
  %7 = alloca i32, align 4
  call void @llvm.lifetime.start.p0(i64 1, ptr nonnull %5) #6
  call void @llvm.lifetime.start.p0(i64 1, ptr nonnull %6) #6
  call void @llvm.lifetime.start.p0(i64 4, ptr nonnull %7) #6
  store i32 -1, ptr @propertyArrayIndex, align 4
  br label %8

8:                                                ; preds = %28, %4
  %.031 = phi i32 [ %3, %4 ], [ %.2, %28 ]
  %9 = tail call i32 @tvb_reported_length_remaining(ptr noundef nonnull %0, i32 noundef %.031)
  %10 = icmp sgt i32 %9, 0
  br i1 %10, label %11, label %29

11:                                               ; preds = %8
  %12 = call fastcc range(i32 1, 8) i32 @fTagHeaderTree(ptr noundef nonnull %0, ptr noundef %1, ptr noundef null, i32 noundef %.031, ptr noundef nonnull %5, ptr noundef nonnull %6, ptr noundef nonnull %7)
  %13 = load i8, ptr %6, align 1
  %14 = and i8 %13, 7
  %15 = icmp eq i8 %14, 7
  br i1 %15, label %29, label %16

16:                                               ; preds = %11
  %17 = load i8, ptr %5, align 1
  switch i8 %17, label %29 [
    i8 0, label %18
    i8 1, label %20
    i8 2, label %22
    i8 3, label %24
    i8 4, label %26
  ]

18:                                               ; preds = %16
  %19 = tail call fastcc i32 @fObjectIdentifier(ptr noundef %0, ptr noundef %1, ptr noundef %2, i32 noundef %.031, ptr noundef nonnull @.str.2598)
  br label %28

20:                                               ; preds = %16
  %21 = tail call fastcc i32 @fPropertyIdentifier(ptr noundef %0, ptr noundef %1, ptr noundef %2, i32 noundef %.031)
  br label %28

22:                                               ; preds = %16
  %23 = tail call fastcc i32 @fPropertyArrayIndex(ptr noundef %0, ptr noundef %1, ptr noundef %2, i32 noundef %.031)
  br label %28

24:                                               ; preds = %16
  %25 = tail call fastcc i32 @fPropertyValue(ptr noundef %0, ptr noundef %1, ptr noundef %2, i32 noundef %.031, i8 noundef zeroext %13)
  br label %28

26:                                               ; preds = %16
  %27 = tail call fastcc i32 @fUnsignedTag(ptr noundef %0, ptr noundef %1, ptr noundef %2, i32 noundef %.031, ptr noundef nonnull @.str.2682)
  br label %28

28:                                               ; preds = %26, %24, %22, %20, %18
  %.2 = phi i32 [ %27, %26 ], [ %25, %24 ], [ %23, %22 ], [ %21, %20 ], [ %19, %18 ]
  %.not = icmp ugt i32 %.2, %.031
  br i1 %.not, label %8, label %29, !llvm.loop !176

29:                                               ; preds = %8, %11, %28, %16
  %.0 = phi i32 [ %.031, %16 ], [ %.031, %11 ], [ %.2, %28 ], [ %.031, %8 ]
  call void @llvm.lifetime.end.p0(i64 4, ptr nonnull %7) #6
  call void @llvm.lifetime.end.p0(i64 1, ptr nonnull %6) #6
  call void @llvm.lifetime.end.p0(i64 1, ptr nonnull %5) #6
  ret i32 %.0
}